target datalayout = "e-m:e-p270:32:32-p271:32:32-p272:64:64-i64:64-i128:128-f80:128-n8:16:32:64-S128"
target triple = "x86_64-pc-linux-gnu"

%struct.URLContext = type { ptr, ptr, ptr, ptr, i32, i32, i32, i32, %struct.AVIOInterruptCB, i64, ptr, ptr, i32 }
%struct.AVIOInterruptCB = type { ptr, ptr }
%struct.URLProtocol = type { ptr, ptr, ptr, ptr, ptr, ptr, ptr, ptr, ptr, ptr, ptr, ptr, ptr, ptr, ptr, ptr, i32, i32, ptr, ptr, ptr, ptr, ptr, ptr, ptr }

; Function Attrs: nounwind uwtable
define i32 @ff_check_interrupt(ptr noundef %0) #1 {
  %2 = alloca i32, align 4
  %3 = alloca ptr, align 8
  store ptr %0, ptr %3, align 8, !tbaa !69
  %4 = load ptr, ptr %3, align 8, !tbaa !69
  %5 = icmp ne ptr %4, null
  br i1 %5, label %6, label %19

6:                                                ; preds = %1
  %7 = load ptr, ptr %3, align 8, !tbaa !69
  %8 = getelementptr inbounds nuw %struct.AVIOInterruptCB, ptr %7, i32 0, i32 0
  %9 = load ptr, ptr %8, align 8, !tbaa !124
  %10 = icmp ne ptr %9, null
  br i1 %10, label %11, label %19

11:                                               ; preds = %6
  %12 = load ptr, ptr %3, align 8, !tbaa !69
  %13 = getelementptr inbounds nuw %struct.AVIOInterruptCB, ptr %12, i32 0, i32 0
  %14 = load ptr, ptr %13, align 8, !tbaa !124
  %15 = load ptr, ptr %3, align 8, !tbaa !69
  %16 = getelementptr inbounds nuw %struct.AVIOInterruptCB, ptr %15, i32 0, i32 1
  %17 = load ptr, ptr %16, align 8, !tbaa !125
  %18 = call i32 %14(ptr noundef %17)
  store i32 %18, ptr %2, align 4
  br label %20

19:                                               ; preds = %6, %1
  store i32 0, ptr %2, align 4
  br label %20

20:                                               ; preds = %19, %11
  %21 = load i32, ptr %2, align 4
  ret i32 %21
}

; Function Attrs: inlinehint nounwind uwtable
define internal i32 @retry_transfer_wrapper(ptr noundef %0, ptr noundef %1, ptr noundef %2, i32 noundef %3, i32 noundef %4, i32 noundef %5) #5 {
  %7 = alloca i32, align 4
  %8 = alloca ptr, align 8
  %9 = alloca ptr, align 8
  %10 = alloca ptr, align 8
  %11 = alloca i32, align 4
  %12 = alloca i32, align 4
  %13 = alloca i32, align 4
  %14 = alloca i32, align 4
  %15 = alloca i32, align 4
  %16 = alloca i32, align 4
  %17 = alloca i64, align 8
  %18 = alloca i32, align 4
  store ptr %0, ptr %8, align 8, !tbaa !22
  store ptr %1, ptr %9, align 8, !tbaa !20
  store ptr %2, ptr %10, align 8, !tbaa !20
  store i32 %3, ptr %11, align 4, !tbaa !21
  store i32 %4, ptr %12, align 4, !tbaa !21
  store i32 %5, ptr %13, align 4, !tbaa !21
  call void @llvm.lifetime.start.p0(i64 4, ptr %14) #10
  call void @llvm.lifetime.start.p0(i64 4, ptr %15) #10
  call void @llvm.lifetime.start.p0(i64 4, ptr %16) #10
  store i32 5, ptr %16, align 4, !tbaa !21
  call void @llvm.lifetime.start.p0(i64 8, ptr %17) #10
  store i64 0, ptr %17, align 8, !tbaa !47
  store i32 0, ptr %15, align 4, !tbaa !21
  br label %19

19:                                               ; preds = %137, %66, %6
  %20 = load i32, ptr %15, align 4, !tbaa !21
  %21 = load i32, ptr %12, align 4, !tbaa !21
  %22 = icmp slt i32 %20, %21
  br i1 %22, label %23, label %141

23:                                               ; preds = %19
  %24 = load ptr, ptr %8, align 8, !tbaa !22
  %25 = getelementptr inbounds nuw %struct.URLContext, ptr %24, i32 0, i32 8
  %26 = call i32 @ff_check_interrupt(ptr noundef %25)
  %27 = icmp ne i32 %26, 0
  br i1 %27, label %28, label %29

28:                                               ; preds = %23
  store i32 -1414092869, ptr %7, align 4
  store i32 1, ptr %18, align 4
  br label %143

29:                                               ; preds = %23
  %30 = load i32, ptr %13, align 4, !tbaa !21
  %31 = icmp ne i32 %30, 0
  br i1 %31, label %32, label %47

32:                                               ; preds = %29
  %33 = load ptr, ptr %8, align 8, !tbaa !22
  %34 = getelementptr inbounds nuw %struct.URLContext, ptr %33, i32 0, i32 1
  %35 = load ptr, ptr %34, align 8, !tbaa !38
  %36 = getelementptr inbounds nuw %struct.URLProtocol, ptr %35, i32 0, i32 5
  %37 = load ptr, ptr %36, align 8, !tbaa !78
  %38 = load ptr, ptr %8, align 8, !tbaa !22
  %39 = load ptr, ptr %9, align 8, !tbaa !20
  %40 = load i32, ptr %15, align 4, !tbaa !21
  %41 = sext i32 %40 to i64
  %42 = getelementptr inbounds i8, ptr %39, i64 %41
  %43 = load i32, ptr %11, align 4, !tbaa !21
  %44 = load i32, ptr %15, align 4, !tbaa !21
  %45 = sub nsw i32 %43, %44
  %46 = call i32 %37(ptr noundef %38, ptr noundef %42, i32 noundef %45)
  br label %62

47:                                               ; preds = %29
  %48 = load ptr, ptr %8, align 8, !tbaa !22
  %49 = getelementptr inbounds nuw %struct.URLContext, ptr %48, i32 0, i32 1
  %50 = load ptr, ptr %49, align 8, !tbaa !38
  %51 = getelementptr inbounds nuw %struct.URLProtocol, ptr %50, i32 0, i32 6
  %52 = load ptr, ptr %51, align 8, !tbaa !79
  %53 = load ptr, ptr %8, align 8, !tbaa !22
  %54 = load ptr, ptr %10, align 8, !tbaa !20
  %55 = load i32, ptr %15, align 4, !tbaa !21
  %56 = sext i32 %55 to i64
  %57 = getelementptr inbounds i8, ptr %54, i64 %56
  %58 = load i32, ptr %11, align 4, !tbaa !21
  %59 = load i32, ptr %15, align 4, !tbaa !21
  %60 = sub nsw i32 %58, %59
  %61 = call i32 %52(ptr noundef %53, ptr noundef %57, i32 noundef %60)
  br label %62

62:                                               ; preds = %47, %32
  %63 = phi i32 [ %46, %32 ], [ %61, %47 ]
  store i32 %63, ptr %14, align 4, !tbaa !21
  %64 = load i32, ptr %14, align 4, !tbaa !21
  %65 = icmp eq i32 %64, -4
  br i1 %65, label %66, label %67

66:                                               ; preds = %62
  br label %19, !llvm.loop !89

67:                                               ; preds = %62
  %68 = load ptr, ptr %8, align 8, !tbaa !22
  %69 = getelementptr inbounds nuw %struct.URLContext, ptr %68, i32 0, i32 4
  %70 = load i32, ptr %69, align 8, !tbaa !24
  %71 = and i32 %70, 8
  %72 = icmp ne i32 %71, 0
  br i1 %72, label %73, label %75

73:                                               ; preds = %67
  %74 = load i32, ptr %14, align 4, !tbaa !21
  store i32 %74, ptr %7, align 4
  store i32 1, ptr %18, align 4
  br label %143

75:                                               ; preds = %67
  %76 = load i32, ptr %14, align 4, !tbaa !21
  %77 = icmp eq i32 %76, -11
  br i1 %77, label %78, label %108

78:                                               ; preds = %75
  store i32 0, ptr %14, align 4, !tbaa !21
  %79 = load i32, ptr %16, align 4, !tbaa !21
  %80 = icmp ne i32 %79, 0
  br i1 %80, label %81, label %84

81:                                               ; preds = %78
  %82 = load i32, ptr %16, align 4, !tbaa !21
  %83 = add nsw i32 %82, -1
  store i32 %83, ptr %16, align 4, !tbaa !21
  br label %107

84:                                               ; preds = %78
  %85 = load ptr, ptr %8, align 8, !tbaa !22
  %86 = getelementptr inbounds nuw %struct.URLContext, ptr %85, i32 0, i32 9
  %87 = load i64, ptr %86, align 8, !tbaa !90
  %88 = icmp ne i64 %87, 0
  br i1 %88, label %89, label %105

89:                                               ; preds = %84
  %90 = load i64, ptr %17, align 8, !tbaa !47
  %91 = icmp ne i64 %90, 0
  br i1 %91, label %94, label %92

92:                                               ; preds = %89
  %93 = call i64 @av_gettime_relative()
  store i64 %93, ptr %17, align 8, !tbaa !47
  br label %104

94:                                               ; preds = %89
  %95 = call i64 @av_gettime_relative()
  %96 = load i64, ptr %17, align 8, !tbaa !47
  %97 = load ptr, ptr %8, align 8, !tbaa !22
  %98 = getelementptr inbounds nuw %struct.URLContext, ptr %97, i32 0, i32 9
  %99 = load i64, ptr %98, align 8, !tbaa !90
  %100 = add nsw i64 %96, %99
  %101 = icmp sgt i64 %95, %100
  br i1 %101, label %102, label %103

102:                                              ; preds = %94
  store i32 -5, ptr %7, align 4
  store i32 1, ptr %18, align 4
  br label %143

103:                                              ; preds = %94
  br label %104

104:                                              ; preds = %103, %92
  br label %105

105:                                              ; preds = %104, %84
  %106 = call i32 @av_usleep(i32 noundef 1000)
  br label %107

107:                                              ; preds = %105, %81
  br label %126

108:                                              ; preds = %75
  %109 = load i32, ptr %14, align 4, !tbaa !21
  %110 = icmp eq i32 %109, -541478725
  br i1 %110, label %111, label %119

111:                                              ; preds = %108
  %112 = load i32, ptr %15, align 4, !tbaa !21
  %113 = icmp sgt i32 %112, 0
  br i1 %113, label %114, label %116

114:                                              ; preds = %111
  %115 = load i32, ptr %15, align 4, !tbaa !21
  br label %117

116:                                              ; preds = %111
  br label %117

117:                                              ; preds = %116, %114
  %118 = phi i32 [ %115, %114 ], [ -541478725, %116 ]
  store i32 %118, ptr %7, align 4
  store i32 1, ptr %18, align 4
  br label %143

119:                                              ; preds = %108
  %120 = load i32, ptr %14, align 4, !tbaa !21
  %121 = icmp slt i32 %120, 0
  br i1 %121, label %122, label %124

122:                                              ; preds = %119
  %123 = load i32, ptr %14, align 4, !tbaa !21
  store i32 %123, ptr %7, align 4
  store i32 1, ptr %18, align 4
  br label %143

124:                                              ; preds = %119
  br label %125

125:                                              ; preds = %124
  br label %126

126:                                              ; preds = %125, %107
  %127 = load i32, ptr %14, align 4, !tbaa !21
  %128 = icmp ne i32 %127, 0
  br i1 %128, label %129, label %137

129:                                              ; preds = %126
  %130 = load i32, ptr %16, align 4, !tbaa !21
  %131 = icmp sgt i32 %130, 2
  br i1 %131, label %132, label %134

132:                                              ; preds = %129
  %133 = load i32, ptr %16, align 4, !tbaa !21
  br label %135

134:                                              ; preds = %129
  br label %135

135:                                              ; preds = %134, %132
  %136 = phi i32 [ %133, %132 ], [ 2, %134 ]
  store i32 %136, ptr %16, align 4, !tbaa !21
  store i64 0, ptr %17, align 8, !tbaa !47
  br label %137

137:                                              ; preds = %135, %126
  %138 = load i32, ptr %14, align 4, !tbaa !21
  %139 = load i32, ptr %15, align 4, !tbaa !21
  %140 = add nsw i32 %139, %138
  store i32 %140, ptr %15, align 4, !tbaa !21
  br label %19, !llvm.loop !89

141:                                              ; preds = %19
  %142 = load i32, ptr %15, align 4, !tbaa !21
  store i32 %142, ptr %7, align 4
  store i32 1, ptr %18, align 4
  br label %143

143:                                              ; preds = %141, %122, %117, %102, %73, %28
  call void @llvm.lifetime.end.p0(i64 8, ptr %17) #10
  call void @llvm.lifetime.end.p0(i64 4, ptr %16) #10
  call void @llvm.lifetime.end.p0(i64 4, ptr %15) #10
  call void @llvm.lifetime.end.p0(i64 4, ptr %14) #10
  %144 = load i32, ptr %7, align 4
  ret i32 %144
}

; Function Attrs: nounwind uwtable
define i32 @ffurl_write2(ptr noundef %0, ptr noundef %1, i32 noundef %2) #1 {
  %4 = alloca i32, align 4
  %5 = alloca ptr, align 8
  %6 = alloca ptr, align 8
  %7 = alloca i32, align 4
  %8 = alloca ptr, align 8
  %9 = alloca i32, align 4
  store ptr %0, ptr %5, align 8, !tbaa !4
  store ptr %1, ptr %6, align 8, !tbaa !20
  store i32 %2, ptr %7, align 4, !tbaa !21
  call void @llvm.lifetime.start.p0(i64 8, ptr %8) #10
  %10 = load ptr, ptr %5, align 8, !tbaa !4
  store ptr %10, ptr %8, align 8, !tbaa !22
  %11 = load ptr, ptr %8, align 8, !tbaa !22
  %12 = getelementptr inbounds nuw %struct.URLContext, ptr %11, i32 0, i32 4
  %13 = load i32, ptr %12, align 8, !tbaa !24
  %14 = and i32 %13, 2
  %15 = icmp ne i32 %14, 0
  br i1 %15, label %17, label %16

16:                                               ; preds = %3
  store i32 -5, ptr %4, align 4
  store i32 1, ptr %9, align 4
  br label %35

17:                                               ; preds = %3
  %18 = load ptr, ptr %8, align 8, !tbaa !22
  %19 = getelementptr inbounds nuw %struct.URLContext, ptr %18, i32 0, i32 5
  %20 = load i32, ptr %19, align 4, !tbaa !53
  %21 = icmp ne i32 %20, 0
  br i1 %21, label %22, label %29

22:                                               ; preds = %17
  %23 = load i32, ptr %7, align 4, !tbaa !21
  %24 = load ptr, ptr %8, align 8, !tbaa !22
  %25 = getelementptr inbounds nuw %struct.URLContext, ptr %24, i32 0, i32 5
  %26 = load i32, ptr %25, align 4, !tbaa !53
  %27 = icmp sgt i32 %23, %26
  br i1 %27, label %28, label %29

28:                                               ; preds = %22
  store i32 -5, ptr %4, align 4
  store i32 1, ptr %9, align 4
  br label %35

29:                                               ; preds = %22, %17
  %30 = load ptr, ptr %8, align 8, !tbaa !22
  %31 = load ptr, ptr %6, align 8, !tbaa !20
  %32 = load i32, ptr %7, align 4, !tbaa !21
  %33 = load i32, ptr %7, align 4, !tbaa !21
  %34 = call i32 @retry_transfer_wrapper(ptr noundef %30, ptr noundef null, ptr noundef %31, i32 noundef %32, i32 noundef %33, i32 noundef 0)
  store i32 %34, ptr %4, align 4
  store i32 1, ptr %9, align 4
  br label %35

35:                                               ; preds = %29, %28, %16
  call void @llvm.lifetime.end.p0(i64 8, ptr %8) #10
  %36 = load i32, ptr %4, align 4
  ret i32 %36
}