; Function Attrs: nounwind uwtable
define i32 @ffurl_write2(ptr noundef %0, ptr noundef %1, i32 noundef %2) #3 {
  %4 = getelementptr inbounds nuw i8, ptr %0, i64 32
  %5 = load i32, ptr %4, align 8, !tbaa !15
  %6 = and i32 %5, 2
  %.not = icmp eq i32 %6, 0
  br i1 %.not, label %retry_transfer_wrapper.exit, label %7

7:                                                ; preds = %3
  %8 = getelementptr inbounds nuw i8, ptr %0, i64 36
  %9 = load i32, ptr %8, align 4, !tbaa !44
  %.not10 = icmp ne i32 %9, 0
  %10 = icmp sgt i32 %2, %9
  %or.cond = and i1 %.not10, %10
  br i1 %or.cond, label %retry_transfer_wrapper.exit, label %11

11:                                               ; preds = %7
  %12 = getelementptr inbounds nuw i8, ptr %0, i64 48
  %13 = getelementptr inbounds nuw i8, ptr %0, i64 56
  %14 = getelementptr inbounds nuw i8, ptr %0, i64 8
  %15 = icmp sgt i32 %2, 0
  br i1 %15, label %.outer.split.lr.ph.i, label %retry_transfer_wrapper.exit

.outer.split.lr.ph.i:                             ; preds = %11
  %16 = getelementptr inbounds nuw i8, ptr %0, i64 64
  br label %.outer.split.us.i

.outer.split.us.i:                                ; preds = %.outer.us.i, %.outer.split.lr.ph.i
  %17 = phi i32 [ %40, %.outer.us.i ], [ %2, %.outer.split.lr.ph.i ]
  %18 = phi ptr [ %39, %.outer.us.i ], [ %1, %.outer.split.lr.ph.i ]
  %.0.ph61.us.i = phi i64 [ %.3.us.i, %.outer.us.i ], [ 0, %.outer.split.lr.ph.i ]
  %.037.ph60.us.i = phi i32 [ %.239.us.i, %.outer.us.i ], [ 5, %.outer.split.lr.ph.i ]
  %.040.ph59.us.i = phi i32 [ %36, %.outer.us.i ], [ 0, %.outer.split.lr.ph.i ]
  br label %41

19:                                               ; preds = %.split.us.us.i
  switch i32 %48, label %33 [
    i32 -11, label %20
    i32 -541478725, label %.split63.us.i
  ]

20:                                               ; preds = %19
  %.not46.us.i = icmp eq i32 %.037.ph60.us.i, 0
  br i1 %.not46.us.i, label %23, label %21

21:                                               ; preds = %20
  %22 = add nsw i32 %.037.ph60.us.i, -1
  br label %.outer.us.i

23:                                               ; preds = %20
  %24 = load i64, ptr %16, align 8, !tbaa !26
  %.not47.us.i = icmp eq i64 %24, 0
  br i1 %.not47.us.i, label %31, label %25

25:                                               ; preds = %23
  %.not48.us.i = icmp eq i64 %.0.ph61.us.i, 0
  %26 = tail call i64 @av_gettime_relative() #12
  br i1 %.not48.us.i, label %31, label %27

27:                                               ; preds = %25
  %28 = load i64, ptr %16, align 8, !tbaa !26
  %29 = add nsw i64 %28, %.0.ph61.us.i
  %30 = icmp sgt i64 %26, %29
  br i1 %30, label %retry_transfer_wrapper.exit, label %31

31:                                               ; preds = %27, %25, %23
  %.1.us.i = phi i64 [ %.0.ph61.us.i, %27 ], [ %.0.ph61.us.i, %23 ], [ %26, %25 ]
  %32 = tail call i32 @av_usleep(i32 noundef 1000) #12
  br label %.outer.us.i

33:                                               ; preds = %19
  %34 = icmp slt i32 %48, 0
  br i1 %34, label %retry_transfer_wrapper.exit, label %.outer.us.i

.outer.us.i:                                      ; preds = %33, %31, %21
  %.041.us.i = phi i32 [ 0, %21 ], [ 0, %31 ], [ %48, %33 ]
  %.138.us.i = phi i32 [ %22, %21 ], [ 0, %31 ], [ %.037.ph60.us.i, %33 ]
  %.2.us.i = phi i64 [ %.0.ph61.us.i, %21 ], [ %.1.us.i, %31 ], [ %.0.ph61.us.i, %33 ]
  %.not49.us.i = icmp eq i32 %.041.us.i, 0
  %35 = tail call i32 @llvm.smax.i32(i32 %.138.us.i, i32 2)
  %.239.us.i = select i1 %.not49.us.i, i32 %.138.us.i, i32 %35
  %.3.us.i = select i1 %.not49.us.i, i64 %.2.us.i, i64 0
  %36 = add nuw nsw i32 %.041.us.i, %.040.ph59.us.i
  %37 = icmp slt i32 %36, %2
  %38 = zext nneg i32 %36 to i64
  %39 = getelementptr inbounds nuw i8, ptr %1, i64 %38
  %40 = sub nsw i32 %2, %36
  br i1 %37, label %.outer.split.us.i, label %retry_transfer_wrapper.exit, !llvm.loop !24

41:                                               ; preds = %ff_check_interrupt.exit.thread.us.us.i, %.outer.split.us.i
  %42 = load ptr, ptr %12, align 8, !tbaa !19
  %.not6.i.us.us.i = icmp eq ptr %42, null
  br i1 %.not6.i.us.us.i, label %ff_check_interrupt.exit.thread.us.us.i, label %ff_check_interrupt.exit.us.us.i

ff_check_interrupt.exit.us.us.i:                  ; preds = %41
  %43 = load ptr, ptr %13, align 8, !tbaa !20
  %44 = tail call i32 %42(ptr noundef %43) #12
  %.not.us.us.i = icmp eq i32 %44, 0
  br i1 %.not.us.us.i, label %ff_check_interrupt.exit.thread.us.us.i, label %retry_transfer_wrapper.exit

ff_check_interrupt.exit.thread.us.us.i:           ; preds = %ff_check_interrupt.exit.us.us.i, %41
  %45 = load ptr, ptr %14, align 8, !tbaa !21
  %46 = getelementptr inbounds nuw i8, ptr %45, i64 48
  %47 = load ptr, ptr %46, align 8, !tbaa !64
  %48 = tail call i32 %47(ptr noundef nonnull %0, ptr noundef %18, i32 noundef %17) #12
  %49 = icmp eq i32 %48, -4
  br i1 %49, label %41, label %.split.us.us.i, !llvm.loop !24

.split.us.us.i:                                   ; preds = %ff_check_interrupt.exit.thread.us.us.i
  %50 = load i32, ptr %4, align 8, !tbaa !15
  %51 = and i32 %50, 8
  %.not45.us.i = icmp eq i32 %51, 0
  br i1 %.not45.us.i, label %19, label %retry_transfer_wrapper.exit

.split63.us.i:                                    ; preds = %19
  %.not11 = icmp eq i32 %.040.ph59.us.i, 0
  %52 = select i1 %.not11, i32 -541478725, i32 %.040.ph59.us.i
  br label %retry_transfer_wrapper.exit

retry_transfer_wrapper.exit:                      ; preds = %.split.us.us.i, %.outer.us.i, %33, %27, %ff_check_interrupt.exit.us.us.i, %.split63.us.i, %11, %7, %3
  %.0 = phi i32 [ -5, %3 ], [ -5, %7 ], [ %52, %.split63.us.i ], [ 0, %11 ], [ -1414092869, %ff_check_interrupt.exit.us.us.i ], [ %48, %33 ], [ -5, %27 ], [ %48, %.split.us.us.i ], [ %36, %.outer.us.i ]
  ret i32 %.0
}